8000	4C04	JMP 8004	00	00	00	FD	nv--dIzc	 7
8004	A201 		LDX#01		00	00	00	FD	nv--dIzc	 10
8006	E8 		INX 			00	01	00	FD	nv--dIzc	 12
8007	8600 		STX<00    00	02	00	FD	nv--dIzc	 14
8009	CA 		DEX 			00	02	00	FD	nv--dIzc	 17
800A	8A 		TXA 			00	01	00	FD	nv--dIzc	 19
800B	A8 		TAY 			01	01	00	FD	nv--dIzc	 21
800C	8401 		STY<01	01	01	01	FD	nv--dIzc	 23
800E	BA 		TSX 			01	01	01	FD	nv--dIzc	 26
800F	8602 		STX<02	01	FD	01	FD	Nv--dIzc	 28
8011	C8 		INY 			01	FD	01	FD	Nv--dIzc	 31
8012	98 		TYA 			01	FD	02	FD	nv--dIzc	 33
8013	AA 		TAX 			02	FD	02	FD	nv--dIzc	 35
8014	9A 		TXS 			02	02	02	FD	nv--dIzc	 37
8015	08 		PHP 			02	02	02	02	nv--dIzc	 39
8016	38 		SEC 			02	02	02	01	nv--dIzc	 42
8017	F8 		SED 			02	02	02	01	nv--dIzC	 44
8018	78 		SEI 			02	02	02	01	nv--DIzC	 46
8019	08 		PHP 			02	02	02	01	nv--DIzC	 48
801A	28 		PLP 			02	02	02	00	nv--DIzC	 51
801B	28 		PLP 			02	02	02	01	nv--DIzC	 55
801C	AD0101 	LDA0101		02	02	02	02	nv--dIzc	 59
801F	85 03 		STA <03		3D	02	02	02	nv--dIzc	 63
8021	AD 02 01 	LDA 0102		3D	02	02	02	nv--dIzc	 66
8024	85 04 		STA <04		34	02	02	02	nv--dIzc	 70
8026	A2 FD 		LDX #FD			34	02	02	02	nv--dIzc	 73
8028	9A 		TXS 			34	FD	02	02	Nv--dIzc	 75
8029	EA 		NOP 			34	FD	02	FD	Nv--dIzc	 77
802A	EA 		NOP 			34	FD	02	FD	Nv--dIzc	 79
802B	EA 		NOP 			34	FD	02	FD	Nv--dIzc	 81
802C	A9 81 		LDA #81			34	FD	02	FD	Nv--dIzc	 83
802E	0A 		ASL A			81	FD	02	FD	Nv--dIzc	 85
802F	85 05 		STA <05		02	FD	02	FD	nv--dIzC	 87
8031	26 05 		ROL <05		02	FD	02	FD	nv--dIzC	 90
8033	A9 7F 		LDA #7F			02	FD	02	FD	nv--dIzc	 95
8035	29 F0 		AND #F0			7F	FD	02	FD	nv--dIzc	 97
8037	49 3C 		EOR #3C			70	FD	02	FD	nv--dIzc	 99
8039	09 01 		ORA #01			4C	FD	02	FD	nv--dIzc	 101
803B	85 06 		STA <06		4D	FD	02	FD	nv--dIzc	 103
803D	38 		SEC 			4D	FD	02	FD	nv--dIzc	 106
803E	66 06 		ROR <06		4D	FD	02	FD	nv--dIzC	 108
8040	46 06 		LSR <06		4D	FD	02	FD	Nv--dIzC	 113
8042	A9 F0 		LDA #F0			4D	FD	02	FD	nv--dIzc	 118
8044	38 		SEC 			F0	FD	02	FD	Nv--dIzc	 120
8045	69 20 		ADC #20			F0	FD	02	FD	Nv--dIzC	 122
8047	85 07 		STA <07		11	FD	02	FD	nv--dIzC	 124
8049	70 26 		BVS 8071		11	FD	02	FD	nv--dIzC	 127
804B	B0 01 		BCS 804E		11	FD	02	FD	nv--dIzC	 129
804E	A9 70 		LDA #70			11	FD	02	FD	nv--dIzC	 132
8050	18 		CLC 			70	FD	02	FD	nv--dIzC	 134
8051	69 20 		ADC #20			70	FD	02	FD	nv--dIzc	 136
8053	85 08 		STA <08		90	FD	02	FD	NV--dIzc	 138
8055	B0 1A 		BCS 8071		90	FD	02	FD	NV--dIzc	 141
8057	70 01 		BVS 805A		90	FD	02	FD	NV--dIzc	 143
805A	A9 11 		LDA #11			90	FD	02	FD	NV--dIzc	 146
805C	18 		CLC 			11	FD	02	FD	nV--dIzc	 148
805D	E9 20 		SBC #20			11	FD	02	FD	nV--dIzc	 150
805F	85 09 		STA <09		F0	FD	02	FD	Nv--dIzc	 152
8061	70 0E 		BVS 8071		F0	FD	02	FD	Nv--dIzc	 155
8063	90 01 		BCC 8066		F0	FD	02	FD	Nv--dIzc	 157
8066	A9 90 		LDA #90			F0	FD	02	FD	Nv--dIzc	 160
8068	38 		SEC 			90	FD	02	FD	Nv--dIzc	 162
8069	E9 20 		SBC #20			90	FD	02	FD	Nv--dIzC	 164
806B	85 0A 		STA <0A		70	FD	02	FD	nV--dIzC	 166
806D	90 02 		BCC 8071		70	FD	02	FD	nV--dIzC	 169
806F	70 01 		BVS 8072		70	FD	02	FD	nV--dIzC	 171
8072	A9 50 		LDA #50			70	FD	02	FD	nV--dIzC	 174
8074	C9 50 		CMP #50			50	FD	02	FD	nV--dIzC	 176
8076	D0 F9 		BNE 8071		50	FD	02	FD	nV--dIZC	 178
8078	30 F7 		BMI 8071		50	FD	02	FD	nV--dIZC	 180
807A	90 F5 		BCC 8071		50	FD	02	FD	nV--dIZC	 182
807C	B8 		CLV 			50	FD	02	FD	nV--dIZC	 184
807D	A9 70 		LDA #70			50	FD	02	FD	nv--dIZC	 186
807F	24 09 		BIT <09		70	FD	02	FD	nv--dIzC	 188
8081	10 EE 		BPL 8071		70	FD	02	FD	NV--dIzC	 191
8083	50 EC 		BVC 8071		70	FD	02	FD	NV--dIzC	 193
8085	F0 EA 		BEQ 8071		70	FD	02	FD	NV--dIzC	 195
8087	00 EA 		BRK 			70	FD	02	FD	NV--dIzC	 197
808C	A9 01 		LDA #01			70	FD	02	FA	NV--dIzC	 204
808E	85 0B 		STA <0B		01	FD	02	FA	nV--dIzC	 206
8090	40 		RTI 			01	FD	02	FA	nV--dIzC	 209
8089	85 0C 		STA <0C		01	FD	02	FD	NV--dIzC	 215
808B	02 		HLT 			01	FD	02	FD	NV--dIzC	 218
